; Function Attrs: nounwind uwtable
define i32 @pmix_bfrops_base_copy_topology(ptr noundef writeonly captures(none) %0, ptr noundef %1, i16 noundef zeroext %2) local_unnamed_addr #0 {
  %calloc.i.i = tail call noalias noundef dereferenceable_or_null(16) ptr @calloc(i64 1, i64 16)
  %4 = icmp eq ptr %calloc.i.i, null
  br i1 %4, label %pmix_bfrops_base_tma_copy_topology.exit, label %5, !prof !43

5:                                                ; preds = %3
  %6 = tail call i32 @pmix_hwloc_copy_topology(ptr noundef nonnull %calloc.i.i, ptr noundef %1) #23
  %7 = icmp eq i32 %6, 0
  br i1 %7, label %8, label %9

8:                                                ; preds = %5
  store ptr %calloc.i.i, ptr %0, align 8, !tbaa !15
  br label %pmix_bfrops_base_tma_copy_topology.exit

9:                                                ; preds = %5
  tail call void @free(ptr noundef nonnull %calloc.i.i) #23
  br label %pmix_bfrops_base_tma_copy_topology.exit

pmix_bfrops_base_tma_copy_topology.exit:          ; preds = %3, %8, %9
  %.0.i = phi i32 [ -32, %3 ], [ %6, %9 ], [ 0, %8 ]
  ret i32 %.0.i
}